target datalayout = "e-m:e-p270:32:32-p271:32:32-p272:64:64-i64:64-i128:128-f80:128-n8:16:32:64-S128"
target triple = "x86_64-pc-linux-gnu"

%"struct.cv::tinyxml2::Entity" = type { ptr, i32, i8 }
%"class.cv::tinyxml2::XMLPrinter" = type { %"class.cv::tinyxml2::XMLVisitor", i8, %"class.cv::tinyxml2::DynArray.6", i8, ptr, i32, i32, i8, i8, [64 x i8], [64 x i8], [6 x i8], %"class.cv::tinyxml2::DynArray.7" }
%"class.cv::tinyxml2::XMLVisitor" = type { ptr }
%"class.cv::tinyxml2::DynArray.6" = type { ptr, [10 x ptr], i32, i32 }
%"class.cv::tinyxml2::DynArray.7" = type <{ ptr, [20 x i8], i32, i32, [4 x i8] }>

; Function Attrs: mustprogress uwtable
define linkonce_odr hidden void @_ZN2cv8tinyxml28DynArrayIcLi20EE14EnsureCapacityEi(ptr noundef nonnull align 8 dereferenceable(36) %0, i32 noundef %1) #3 comdat align 2 {
  %3 = alloca ptr, align 8
  %4 = alloca i32, align 4
  %5 = alloca i32, align 4
  %6 = alloca ptr, align 8
  store ptr %0, ptr %3, align 8, !tbaa !206
  store i32 %1, ptr %4, align 4, !tbaa !15
  %7 = load ptr, ptr %3, align 8
  %8 = load i32, ptr %4, align 4, !tbaa !15
  %9 = getelementptr inbounds nuw %"class.cv::tinyxml2::DynArray.7", ptr %7, i32 0, i32 2
  %10 = load i32, ptr %9, align 4, !tbaa !209
  %11 = icmp sgt i32 %8, %10
  br i1 %11, label %12, label %43

12:                                               ; preds = %2
  call void @llvm.lifetime.start.p0(i64 4, ptr %5) #17
  %13 = load i32, ptr %4, align 4, !tbaa !15
  %14 = mul nsw i32 %13, 2
  store i32 %14, ptr %5, align 4, !tbaa !15
  call void @llvm.lifetime.start.p0(i64 8, ptr %6) #17
  %15 = load i32, ptr %5, align 4, !tbaa !15
  %16 = sext i32 %15 to i64
  %17 = icmp slt i64 %16, 0
  %18 = select i1 %17, i64 -1, i64 %16
  %19 = call noalias noundef nonnull ptr @_Znam(i64 noundef %18) #19
  store ptr %19, ptr %6, align 8, !tbaa !14
  %20 = load ptr, ptr %6, align 8, !tbaa !14
  %21 = getelementptr inbounds nuw %"class.cv::tinyxml2::DynArray.7", ptr %7, i32 0, i32 0
  %22 = load ptr, ptr %21, align 8, !tbaa !208
  %23 = getelementptr inbounds nuw %"class.cv::tinyxml2::DynArray.7", ptr %7, i32 0, i32 3
  %24 = load i32, ptr %23, align 8, !tbaa !210
  %25 = sext i32 %24 to i64
  %26 = mul i64 1, %25
  call void @llvm.memcpy.p0.p0.i64(ptr align 1 %20, ptr align 1 %22, i64 %26, i1 false)
  %27 = getelementptr inbounds nuw %"class.cv::tinyxml2::DynArray.7", ptr %7, i32 0, i32 0
  %28 = load ptr, ptr %27, align 8, !tbaa !208
  %29 = getelementptr inbounds nuw %"class.cv::tinyxml2::DynArray.7", ptr %7, i32 0, i32 1
  %30 = getelementptr inbounds [20 x i8], ptr %29, i64 0, i64 0
  %31 = icmp ne ptr %28, %30
  br i1 %31, label %32, label %38

32:                                               ; preds = %12
  %33 = getelementptr inbounds nuw %"class.cv::tinyxml2::DynArray.7", ptr %7, i32 0, i32 0
  %34 = load ptr, ptr %33, align 8, !tbaa !208
  %35 = icmp eq ptr %34, null
  br i1 %35, label %37, label %36

36:                                               ; preds = %32
  call void @_ZdaPv(ptr noundef %34) #16
  br label %37

37:                                               ; preds = %36, %32
  br label %38

38:                                               ; preds = %37, %12
  %39 = load ptr, ptr %6, align 8, !tbaa !14
  %40 = getelementptr inbounds nuw %"class.cv::tinyxml2::DynArray.7", ptr %7, i32 0, i32 0
  store ptr %39, ptr %40, align 8, !tbaa !208
  %41 = load i32, ptr %5, align 4, !tbaa !15
  %42 = getelementptr inbounds nuw %"class.cv::tinyxml2::DynArray.7", ptr %7, i32 0, i32 2
  store i32 %41, ptr %42, align 4, !tbaa !209
  call void @llvm.lifetime.end.p0(i64 8, ptr %6) #17
  call void @llvm.lifetime.end.p0(i64 4, ptr %5) #17
  br label %43

43:                                               ; preds = %38, %2
  ret void
}

; Function Attrs: mustprogress nounwind uwtable
define linkonce_odr hidden void @_ZN2cv8tinyxml210XMLVisitorD2Ev(ptr noundef nonnull align 8 dereferenceable(8) %0) unnamed_addr #0 comdat align 2 {
  %2 = alloca ptr, align 8
  store ptr %0, ptr %2, align 8, !tbaa !110
  ret void
}

; Function Attrs: mustprogress nounwind uwtable
define linkonce_odr hidden void @_ZN2cv8tinyxml28DynArrayIPKcLi10EED2Ev(ptr noundef nonnull align 8 dereferenceable(96) %0) unnamed_addr #0 comdat align 2 {
  %2 = alloca ptr, align 8
  store ptr %0, ptr %2, align 8, !tbaa !201
  %3 = load ptr, ptr %2, align 8
  %4 = getelementptr inbounds nuw %"class.cv::tinyxml2::DynArray.6", ptr %3, i32 0, i32 0
  %5 = load ptr, ptr %4, align 8, !tbaa !203
  %6 = getelementptr inbounds nuw %"class.cv::tinyxml2::DynArray.6", ptr %3, i32 0, i32 1
  %7 = getelementptr inbounds [10 x ptr], ptr %6, i64 0, i64 0
  %8 = icmp ne ptr %5, %7
  br i1 %8, label %9, label %15

9:                                                ; preds = %1
  %10 = getelementptr inbounds nuw %"class.cv::tinyxml2::DynArray.6", ptr %3, i32 0, i32 0
  %11 = load ptr, ptr %10, align 8, !tbaa !203
  %12 = icmp eq ptr %11, null
  br i1 %12, label %14, label %13

13:                                               ; preds = %9
  call void @_ZdaPv(ptr noundef %11) #16
  br label %14

14:                                               ; preds = %13, %9
  br label %15

15:                                               ; preds = %14, %1
  ret void
}

; Function Attrs: mustprogress nounwind uwtable
define linkonce_odr hidden void @_ZN2cv8tinyxml28DynArrayIcLi20EED2Ev(ptr noundef nonnull align 8 dereferenceable(36) %0) unnamed_addr #0 comdat align 2 {
  %2 = alloca ptr, align 8
  store ptr %0, ptr %2, align 8, !tbaa !206
  %3 = load ptr, ptr %2, align 8
  %4 = getelementptr inbounds nuw %"class.cv::tinyxml2::DynArray.7", ptr %3, i32 0, i32 0
  %5 = load ptr, ptr %4, align 8, !tbaa !208
  %6 = getelementptr inbounds nuw %"class.cv::tinyxml2::DynArray.7", ptr %3, i32 0, i32 1
  %7 = getelementptr inbounds [20 x i8], ptr %6, i64 0, i64 0
  %8 = icmp ne ptr %5, %7
  br i1 %8, label %9, label %15

9:                                                ; preds = %1
  %10 = getelementptr inbounds nuw %"class.cv::tinyxml2::DynArray.7", ptr %3, i32 0, i32 0
  %11 = load ptr, ptr %10, align 8, !tbaa !208
  %12 = icmp eq ptr %11, null
  br i1 %12, label %14, label %13

13:                                               ; preds = %9
  call void @_ZdaPv(ptr noundef %11) #16
  br label %14

14:                                               ; preds = %13, %9
  br label %15

15:                                               ; preds = %14, %1
  ret void
}

; Function Attrs: mustprogress uwtable
define linkonce_odr hidden void @_ZN2cv8tinyxml28DynArrayIcLi20EE4PushEc(ptr noundef nonnull align 8 dereferenceable(36) %0, i8 noundef signext %1) #3 comdat align 2 {
  %3 = alloca ptr, align 8
  %4 = alloca i8, align 1
  store ptr %0, ptr %3, align 8, !tbaa !206
  store i8 %1, ptr %4, align 1, !tbaa !18
  %5 = load ptr, ptr %3, align 8
  %6 = getelementptr inbounds nuw %"class.cv::tinyxml2::DynArray.7", ptr %5, i32 0, i32 3
  %7 = load i32, ptr %6, align 8, !tbaa !210
  %8 = add nsw i32 %7, 1
  call void @_ZN2cv8tinyxml28DynArrayIcLi20EE14EnsureCapacityEi(ptr noundef nonnull align 8 dereferenceable(36) %5, i32 noundef %8)
  %9 = load i8, ptr %4, align 1, !tbaa !18
  %10 = getelementptr inbounds nuw %"class.cv::tinyxml2::DynArray.7", ptr %5, i32 0, i32 0
  %11 = load ptr, ptr %10, align 8, !tbaa !208
  %12 = getelementptr inbounds nuw %"class.cv::tinyxml2::DynArray.7", ptr %5, i32 0, i32 3
  %13 = load i32, ptr %12, align 8, !tbaa !210
  %14 = add nsw i32 %13, 1
  store i32 %14, ptr %12, align 8, !tbaa !210
  %15 = sext i32 %13 to i64
  %16 = getelementptr inbounds i8, ptr %11, i64 %15
  store i8 %9, ptr %16, align 1, !tbaa !18
  ret void
}

; Function Attrs: mustprogress nounwind uwtable
define linkonce_odr hidden void @_ZN2cv8tinyxml28DynArrayIcLi20EEC2Ev(ptr noundef nonnull align 8 dereferenceable(36) %0) unnamed_addr #0 comdat align 2 {
  %2 = alloca ptr, align 8
  store ptr %0, ptr %2, align 8, !tbaa !206
  %3 = load ptr, ptr %2, align 8
  %4 = getelementptr inbounds nuw %"class.cv::tinyxml2::DynArray.7", ptr %3, i32 0, i32 1
  %5 = getelementptr inbounds [20 x i8], ptr %4, i64 0, i64 0
  %6 = getelementptr inbounds nuw %"class.cv::tinyxml2::DynArray.7", ptr %3, i32 0, i32 0
  store ptr %5, ptr %6, align 8, !tbaa !208
  %7 = getelementptr inbounds nuw %"class.cv::tinyxml2::DynArray.7", ptr %3, i32 0, i32 2
  store i32 20, ptr %7, align 4, !tbaa !209
  %8 = getelementptr inbounds nuw %"class.cv::tinyxml2::DynArray.7", ptr %3, i32 0, i32 3
  store i32 0, ptr %8, align 8, !tbaa !210
  ret void
}

; Function Attrs: mustprogress nounwind uwtable
define linkonce_odr hidden void @_ZN2cv8tinyxml28DynArrayIPKcLi10EEC2Ev(ptr noundef nonnull align 8 dereferenceable(96) %0) unnamed_addr #0 comdat align 2 {
  %2 = alloca ptr, align 8
  store ptr %0, ptr %2, align 8, !tbaa !201
  %3 = load ptr, ptr %2, align 8
  %4 = getelementptr inbounds nuw %"class.cv::tinyxml2::DynArray.6", ptr %3, i32 0, i32 1
  %5 = getelementptr inbounds [10 x ptr], ptr %4, i64 0, i64 0
  %6 = getelementptr inbounds nuw %"class.cv::tinyxml2::DynArray.6", ptr %3, i32 0, i32 0
  store ptr %5, ptr %6, align 8, !tbaa !203
  %7 = getelementptr inbounds nuw %"class.cv::tinyxml2::DynArray.6", ptr %3, i32 0, i32 2
  store i32 10, ptr %7, align 8, !tbaa !204
  %8 = getelementptr inbounds nuw %"class.cv::tinyxml2::DynArray.6", ptr %3, i32 0, i32 3
  store i32 0, ptr %8, align 4, !tbaa !205
  ret void
}

; Function Attrs: inlinehint mustprogress nounwind uwtable
define linkonce_odr hidden void @_ZN2cv8tinyxml210XMLVisitorC2Ev(ptr noundef nonnull align 8 dereferenceable(8) %0) unnamed_addr #8 comdat align 2 {
  %2 = alloca ptr, align 8
  store ptr %0, ptr %2, align 8, !tbaa !110
  %3 = load ptr, ptr %2, align 8
  store ptr getelementptr inbounds inrange(-16, 80) ({ [12 x ptr] }, ptr @_ZTVN2cv8tinyxml210XMLVisitorE, i32 0, i32 0, i32 2), ptr %3, align 8, !tbaa !92
  ret void
}

; Function Attrs: mustprogress uwtable
define hidden void @_ZN2cv8tinyxml210XMLPrinterC2EP8_IO_FILEbi(ptr noundef nonnull align 8 dereferenceable(312) %0, ptr noundef %1, i1 noundef zeroext %2, i32 noundef %3) unnamed_addr #3 align 2 personality ptr @__gxx_personality_v0 {
  %5 = alloca ptr, align 8
  %6 = alloca ptr, align 8
  %7 = alloca i8, align 1
  %8 = alloca i32, align 4
  %9 = alloca ptr, align 8
  %10 = alloca i32, align 4
  %11 = alloca i32, align 4
  %12 = alloca i32, align 4
  store ptr %0, ptr %5, align 8, !tbaa !185
  store ptr %1, ptr %6, align 8, !tbaa !182
  %13 = zext i1 %2 to i8
  store i8 %13, ptr %7, align 1, !tbaa !37
  store i32 %3, ptr %8, align 4, !tbaa !15
  %14 = load ptr, ptr %5, align 8
  call void @_ZN2cv8tinyxml210XMLVisitorC2Ev(ptr noundef nonnull align 8 dereferenceable(8) %14) #17
  store ptr getelementptr inbounds inrange(-16, 104) ({ [15 x ptr] }, ptr @_ZTVN2cv8tinyxml210XMLPrinterE, i32 0, i32 0, i32 2), ptr %14, align 8, !tbaa !92
  %15 = getelementptr inbounds nuw %"class.cv::tinyxml2::XMLPrinter", ptr %14, i32 0, i32 1
  store i8 0, ptr %15, align 8, !tbaa !187
  %16 = getelementptr inbounds nuw %"class.cv::tinyxml2::XMLPrinter", ptr %14, i32 0, i32 2
  invoke void @_ZN2cv8tinyxml28DynArrayIPKcLi10EEC2Ev(ptr noundef nonnull align 8 dereferenceable(96) %16)
          to label %17 unwind label %35

17:                                               ; preds = %4
  %18 = getelementptr inbounds nuw %"class.cv::tinyxml2::XMLPrinter", ptr %14, i32 0, i32 3
  store i8 1, ptr %18, align 8, !tbaa !193
  %19 = getelementptr inbounds nuw %"class.cv::tinyxml2::XMLPrinter", ptr %14, i32 0, i32 4
  %20 = load ptr, ptr %6, align 8, !tbaa !182
  store ptr %20, ptr %19, align 8, !tbaa !194
  %21 = getelementptr inbounds nuw %"class.cv::tinyxml2::XMLPrinter", ptr %14, i32 0, i32 5
  %22 = load i32, ptr %8, align 4, !tbaa !15
  store i32 %22, ptr %21, align 8, !tbaa !195
  %23 = getelementptr inbounds nuw %"class.cv::tinyxml2::XMLPrinter", ptr %14, i32 0, i32 6
  store i32 -1, ptr %23, align 4, !tbaa !196
  %24 = getelementptr inbounds nuw %"class.cv::tinyxml2::XMLPrinter", ptr %14, i32 0, i32 7
  store i8 1, ptr %24, align 8, !tbaa !197
  %25 = getelementptr inbounds nuw %"class.cv::tinyxml2::XMLPrinter", ptr %14, i32 0, i32 8
  %26 = load i8, ptr %7, align 1, !tbaa !37, !range !39, !noundef !40
  %27 = trunc i8 %26 to i1
  %28 = zext i1 %27 to i8
  store i8 %28, ptr %25, align 1, !tbaa !198
  %29 = getelementptr inbounds nuw %"class.cv::tinyxml2::XMLPrinter", ptr %14, i32 0, i32 12
  invoke void @_ZN2cv8tinyxml28DynArrayIcLi20EEC2Ev(ptr noundef nonnull align 8 dereferenceable(36) %29)
          to label %30 unwind label %39

30:                                               ; preds = %17
  call void @llvm.lifetime.start.p0(i64 4, ptr %11) #17
  store i32 0, ptr %11, align 4, !tbaa !15
  br label %31

31:                                               ; preds = %52, %30
  %32 = load i32, ptr %11, align 4, !tbaa !15
  %33 = icmp slt i32 %32, 64
  br i1 %33, label %43, label %34

34:                                               ; preds = %31
  call void @llvm.lifetime.end.p0(i64 4, ptr %11) #17
  br label %55

35:                                               ; preds = %4
  %36 = landingpad { ptr, i32 }
          cleanup
  %37 = extractvalue { ptr, i32 } %36, 0
  store ptr %37, ptr %9, align 8
  %38 = extractvalue { ptr, i32 } %36, 1
  store i32 %38, ptr %10, align 4
  br label %96

39:                                               ; preds = %17
  %40 = landingpad { ptr, i32 }
          cleanup
  %41 = extractvalue { ptr, i32 } %40, 0
  store ptr %41, ptr %9, align 8
  %42 = extractvalue { ptr, i32 } %40, 1
  store i32 %42, ptr %10, align 4
  br label %95

43:                                               ; preds = %31
  %44 = getelementptr inbounds nuw %"class.cv::tinyxml2::XMLPrinter", ptr %14, i32 0, i32 9
  %45 = load i32, ptr %11, align 4, !tbaa !15
  %46 = sext i32 %45 to i64
  %47 = getelementptr inbounds [64 x i8], ptr %44, i64 0, i64 %46
  store i8 0, ptr %47, align 1, !tbaa !37
  %48 = getelementptr inbounds nuw %"class.cv::tinyxml2::XMLPrinter", ptr %14, i32 0, i32 10
  %49 = load i32, ptr %11, align 4, !tbaa !15
  %50 = sext i32 %49 to i64
  %51 = getelementptr inbounds [64 x i8], ptr %48, i64 0, i64 %50
  store i8 0, ptr %51, align 1, !tbaa !37
  br label %52

52:                                               ; preds = %43
  %53 = load i32, ptr %11, align 4, !tbaa !15
  %54 = add nsw i32 %53, 1
  store i32 %54, ptr %11, align 4, !tbaa !15
  br label %31, !llvm.loop !199

55:                                               ; preds = %34
  call void @llvm.lifetime.start.p0(i64 4, ptr %12) #17
  store i32 0, ptr %12, align 4, !tbaa !15
  br label %56

56:                                               ; preds = %79, %55
  %57 = load i32, ptr %12, align 4, !tbaa !15
  %58 = icmp slt i32 %57, 5
  br i1 %58, label %60, label %59

59:                                               ; preds = %56
  call void @llvm.lifetime.end.p0(i64 4, ptr %12) #17
  br label %82

60:                                               ; preds = %56
  %61 = load i32, ptr %12, align 4, !tbaa !15
  %62 = sext i32 %61 to i64
  %63 = getelementptr inbounds [5 x %"struct.cv::tinyxml2::Entity"], ptr @_ZN2cv8tinyxml2L8entitiesE, i64 0, i64 %62
  %64 = getelementptr inbounds nuw %"struct.cv::tinyxml2::Entity", ptr %63, i32 0, i32 2
  %65 = load i8, ptr %64, align 4, !tbaa !28
  %66 = sext i8 %65 to i32
  %67 = icmp slt i32 %66, 64
  br i1 %67, label %68, label %78

68:                                               ; preds = %60
  %69 = getelementptr inbounds nuw %"class.cv::tinyxml2::XMLPrinter", ptr %14, i32 0, i32 9
  %70 = load i32, ptr %12, align 4, !tbaa !15
  %71 = sext i32 %70 to i64
  %72 = getelementptr inbounds [5 x %"struct.cv::tinyxml2::Entity"], ptr @_ZN2cv8tinyxml2L8entitiesE, i64 0, i64 %71
  %73 = getelementptr inbounds nuw %"struct.cv::tinyxml2::Entity", ptr %72, i32 0, i32 2
  %74 = load i8, ptr %73, align 4, !tbaa !28
  %75 = sext i8 %74 to i32
  %76 = sext i32 %75 to i64
  %77 = getelementptr inbounds [64 x i8], ptr %69, i64 0, i64 %76
  store i8 1, ptr %77, align 1, !tbaa !37
  br label %78

78:                                               ; preds = %68, %60
  br label %79

79:                                               ; preds = %78
  %80 = load i32, ptr %12, align 4, !tbaa !15
  %81 = add nsw i32 %80, 1
  store i32 %81, ptr %12, align 4, !tbaa !15
  br label %56, !llvm.loop !200

82:                                               ; preds = %59
  %83 = getelementptr inbounds nuw %"class.cv::tinyxml2::XMLPrinter", ptr %14, i32 0, i32 10
  %84 = getelementptr inbounds [64 x i8], ptr %83, i64 0, i64 38
  store i8 1, ptr %84, align 2, !tbaa !37
  %85 = getelementptr inbounds nuw %"class.cv::tinyxml2::XMLPrinter", ptr %14, i32 0, i32 10
  %86 = getelementptr inbounds [64 x i8], ptr %85, i64 0, i64 60
  store i8 1, ptr %86, align 2, !tbaa !37
  %87 = getelementptr inbounds nuw %"class.cv::tinyxml2::XMLPrinter", ptr %14, i32 0, i32 10
  %88 = getelementptr inbounds [64 x i8], ptr %87, i64 0, i64 62
  store i8 1, ptr %88, align 2, !tbaa !37
  %89 = getelementptr inbounds nuw %"class.cv::tinyxml2::XMLPrinter", ptr %14, i32 0, i32 12
  invoke void @_ZN2cv8tinyxml28DynArrayIcLi20EE4PushEc(ptr noundef nonnull align 8 dereferenceable(36) %89, i8 noundef signext 0)
          to label %90 unwind label %91

90:                                               ; preds = %82
  ret void

91:                                               ; preds = %82
  %92 = landingpad { ptr, i32 }
          cleanup
  %93 = extractvalue { ptr, i32 } %92, 0
  store ptr %93, ptr %9, align 8
  %94 = extractvalue { ptr, i32 } %92, 1
  store i32 %94, ptr %10, align 4
  call void @_ZN2cv8tinyxml28DynArrayIcLi20EED2Ev(ptr noundef nonnull align 8 dereferenceable(36) %29) #17
  br label %95

95:                                               ; preds = %91, %39
  call void @_ZN2cv8tinyxml28DynArrayIPKcLi10EED2Ev(ptr noundef nonnull align 8 dereferenceable(96) %16) #17
  br label %96

96:                                               ; preds = %95, %35
  call void @_ZN2cv8tinyxml210XMLVisitorD2Ev(ptr noundef nonnull align 8 dereferenceable(8) %14) #17
  br label %97

97:                                               ; preds = %96
  %98 = load ptr, ptr %9, align 8
  %99 = load i32, ptr %10, align 4
  %100 = insertvalue { ptr, i32 } poison, ptr %98, 0
  %101 = insertvalue { ptr, i32 } %100, i32 %99, 1
  resume { ptr, i32 } %101
}